target datalayout = "e-m:e-p270:32:32-p271:32:32-p272:64:64-i64:64-i128:128-f80:128-n8:16:32:64-S128"
target triple = "x86_64-pc-linux-gnu"

%struct.FormData_pg_amop = type { i32, i32, i32, i32, i16, i8, i32, i32, i32 }
%struct.HeapTupleData = type { i32, %struct.ItemPointerData, i32, ptr }
%struct.ItemPointerData = type { %struct.BlockIdData, i16 }
%struct.BlockIdData = type { i16, i16 }
%struct.HeapTupleHeaderData = type { %union.anon, %struct.ItemPointerData, i16, i16, i8, [0 x i8] }
%union.anon = type { %struct.HeapTupleFields }
%struct.HeapTupleFields = type { i32, i32, %union.anon.0 }
%union.anon.0 = type { i32 }
%struct.catclist = type { i32, i32, %struct.dlist_node, [4 x i64], i32, i8, i8, i16, i32, ptr, [0 x ptr] }
%struct.dlist_node = type { ptr, ptr }
%struct.catctup = type { i32, i32, [4 x i64], %struct.dlist_node, i32, i8, i8, %struct.HeapTupleData, ptr, ptr }
%struct.FormData_pg_amproc = type { i32, i32, i32, i32, i16, i32 }

; Function Attrs: inlinehint nounwind uwtable
define internal i64 @Int16GetDatum(i16 noundef signext %0) #2 {
  %2 = alloca i16, align 2
  store i16 %0, ptr %2, align 2
  %3 = load i16, ptr %2, align 2
  %4 = sext i16 %3 to i64
  ret i64 %4
}

; Function Attrs: nounwind uwtable
define dso_local i32 @get_opfamily_proc(i32 noundef %0, i32 noundef %1, i32 noundef %2, i16 noundef signext %3) #0 {
  %5 = alloca i32, align 4
  %6 = alloca i32, align 4
  %7 = alloca i32, align 4
  %8 = alloca i32, align 4
  %9 = alloca i16, align 2
  %10 = alloca ptr, align 8
  %11 = alloca ptr, align 8
  %12 = alloca i32, align 4
  %13 = alloca i32, align 4
  store i32 %0, ptr %6, align 4
  store i32 %1, ptr %7, align 4
  store i32 %2, ptr %8, align 4
  store i16 %3, ptr %9, align 2
  call void @llvm.lifetime.start.p0(i64 8, ptr %10) #7
  call void @llvm.lifetime.start.p0(i64 8, ptr %11) #7
  call void @llvm.lifetime.start.p0(i64 4, ptr %12) #7
  %14 = load i32, ptr %6, align 4
  %15 = call i64 @ObjectIdGetDatum(i32 noundef %14)
  %16 = load i32, ptr %7, align 4
  %17 = call i64 @ObjectIdGetDatum(i32 noundef %16)
  %18 = load i32, ptr %8, align 4
  %19 = call i64 @ObjectIdGetDatum(i32 noundef %18)
  %20 = load i16, ptr %9, align 2
  %21 = call i64 @Int16GetDatum(i16 noundef signext %20)
  %22 = call ptr @SearchSysCache4(i32 noundef 5, i64 noundef %15, i64 noundef %17, i64 noundef %19, i64 noundef %21)
  store ptr %22, ptr %10, align 8
  %23 = load ptr, ptr %10, align 8
  %24 = icmp ne ptr %23, null
  br i1 %24, label %26, label %25

25:                                               ; preds = %4
  store i32 0, ptr %5, align 4
  store i32 1, ptr %13, align 4
  br label %34

26:                                               ; preds = %4
  %27 = load ptr, ptr %10, align 8
  %28 = call ptr @GETSTRUCT(ptr noundef %27)
  store ptr %28, ptr %11, align 8
  %29 = load ptr, ptr %11, align 8
  %30 = getelementptr inbounds nuw %struct.FormData_pg_amproc, ptr %29, i32 0, i32 5
  %31 = load i32, ptr %30, align 4
  store i32 %31, ptr %12, align 4
  %32 = load ptr, ptr %10, align 8
  call void @ReleaseSysCache(ptr noundef %32)
  %33 = load i32, ptr %12, align 4
  store i32 %33, ptr %5, align 4
  store i32 1, ptr %13, align 4
  br label %34

34:                                               ; preds = %26, %25
  call void @llvm.lifetime.end.p0(i64 4, ptr %12) #7
  call void @llvm.lifetime.end.p0(i64 8, ptr %11) #7
  call void @llvm.lifetime.end.p0(i64 8, ptr %10) #7
  %35 = load i32, ptr %5, align 4
  ret i32 %35
}

; Function Attrs: inlinehint nounwind uwtable
define internal ptr @GETSTRUCT(ptr noundef %0) #2 {
  %2 = alloca ptr, align 8
  store ptr %0, ptr %2, align 8
  %3 = load ptr, ptr %2, align 8
  %4 = getelementptr inbounds nuw %struct.HeapTupleData, ptr %3, i32 0, i32 3
  %5 = load ptr, ptr %4, align 8
  %6 = load ptr, ptr %2, align 8
  %7 = getelementptr inbounds nuw %struct.HeapTupleData, ptr %6, i32 0, i32 3
  %8 = load ptr, ptr %7, align 8
  %9 = getelementptr inbounds nuw %struct.HeapTupleHeaderData, ptr %8, i32 0, i32 4
  %10 = load i8, ptr %9, align 2
  %11 = zext i8 %10 to i32
  %12 = sext i32 %11 to i64
  %13 = getelementptr inbounds i8, ptr %5, i64 %12
  ret ptr %13
}

; Function Attrs: inlinehint nounwind uwtable
define internal i64 @ObjectIdGetDatum(i32 noundef %0) #2 {
  %2 = alloca i32, align 4
  store i32 %0, ptr %2, align 4
  %3 = load i32, ptr %2, align 4
  %4 = zext i32 %3 to i64
  ret i64 %4
}

; Function Attrs: nounwind uwtable
define dso_local zeroext i1 @get_op_hash_functions(i32 noundef %0, ptr noundef %1, ptr noundef %2) #0 {
  %4 = alloca i32, align 4
  %5 = alloca ptr, align 8
  %6 = alloca ptr, align 8
  %7 = alloca i8, align 1
  %8 = alloca ptr, align 8
  %9 = alloca i32, align 4
  %10 = alloca ptr, align 8
  %11 = alloca ptr, align 8
  %12 = alloca i32, align 4
  store i32 %0, ptr %4, align 4
  store ptr %1, ptr %5, align 8
  store ptr %2, ptr %6, align 8
  call void @llvm.lifetime.start.p0(i64 1, ptr %7) #7
  store i8 0, ptr %7, align 1
  call void @llvm.lifetime.start.p0(i64 8, ptr %8) #7
  call void @llvm.lifetime.start.p0(i64 4, ptr %9) #7
  %13 = load ptr, ptr %5, align 8
  %14 = icmp ne ptr %13, null
  br i1 %14, label %15, label %17

15:                                               ; preds = %3
  %16 = load ptr, ptr %5, align 8
  store i32 0, ptr %16, align 4
  br label %17

17:                                               ; preds = %15, %3
  %18 = load ptr, ptr %6, align 8
  %19 = icmp ne ptr %18, null
  br i1 %19, label %20, label %22

20:                                               ; preds = %17
  %21 = load ptr, ptr %6, align 8
  store i32 0, ptr %21, align 4
  br label %22

22:                                               ; preds = %20, %17
  %23 = load i32, ptr %4, align 4
  %24 = call i64 @ObjectIdGetDatum(i32 noundef %23)
  %25 = call ptr @SearchSysCacheList(i32 noundef 3, i32 noundef 1, i64 noundef %24, i64 noundef 0, i64 noundef 0)
  store ptr %25, ptr %8, align 8
  store i32 0, ptr %9, align 4
  br label %26

26:                                               ; preds = %118, %22
  %27 = load i32, ptr %9, align 4
  %28 = load ptr, ptr %8, align 8
  %29 = getelementptr inbounds nuw %struct.catclist, ptr %28, i32 0, i32 8
  %30 = load i32, ptr %29, align 8
  %31 = icmp slt i32 %27, %30
  br i1 %31, label %32, label %121

32:                                               ; preds = %26
  call void @llvm.lifetime.start.p0(i64 8, ptr %10) #7
  %33 = load ptr, ptr %8, align 8
  %34 = getelementptr inbounds nuw %struct.catclist, ptr %33, i32 0, i32 10
  %35 = load i32, ptr %9, align 4
  %36 = sext i32 %35 to i64
  %37 = getelementptr inbounds [0 x ptr], ptr %34, i64 0, i64 %36
  %38 = load ptr, ptr %37, align 8
  %39 = getelementptr inbounds nuw %struct.catctup, ptr %38, i32 0, i32 7
  store ptr %39, ptr %10, align 8
  call void @llvm.lifetime.start.p0(i64 8, ptr %11) #7
  %40 = load ptr, ptr %10, align 8
  %41 = call ptr @GETSTRUCT(ptr noundef %40)
  store ptr %41, ptr %11, align 8
  %42 = load ptr, ptr %11, align 8
  %43 = getelementptr inbounds nuw %struct.FormData_pg_amop, ptr %42, i32 0, i32 7
  %44 = load i32, ptr %43, align 4
  %45 = icmp eq i32 %44, 405
  br i1 %45, label %46, label %114

46:                                               ; preds = %32
  %47 = load ptr, ptr %11, align 8
  %48 = getelementptr inbounds nuw %struct.FormData_pg_amop, ptr %47, i32 0, i32 4
  %49 = load i16, ptr %48, align 4
  %50 = sext i16 %49 to i32
  %51 = icmp eq i32 %50, 1
  br i1 %51, label %52, label %114

52:                                               ; preds = %46
  %53 = load ptr, ptr %5, align 8
  %54 = icmp ne ptr %53, null
  br i1 %54, label %55, label %88

55:                                               ; preds = %52
  %56 = load ptr, ptr %11, align 8
  %57 = getelementptr inbounds nuw %struct.FormData_pg_amop, ptr %56, i32 0, i32 1
  %58 = load i32, ptr %57, align 4
  %59 = load ptr, ptr %11, align 8
  %60 = getelementptr inbounds nuw %struct.FormData_pg_amop, ptr %59, i32 0, i32 2
  %61 = load i32, ptr %60, align 4
  %62 = load ptr, ptr %11, align 8
  %63 = getelementptr inbounds nuw %struct.FormData_pg_amop, ptr %62, i32 0, i32 2
  %64 = load i32, ptr %63, align 4
  %65 = call i32 @get_opfamily_proc(i32 noundef %58, i32 noundef %61, i32 noundef %64, i16 noundef signext 1)
  %66 = load ptr, ptr %5, align 8
  store i32 %65, ptr %66, align 4
  %67 = load ptr, ptr %5, align 8
  %68 = load i32, ptr %67, align 4
  %69 = icmp ne i32 %68, 0
  br i1 %69, label %71, label %70

70:                                               ; preds = %55
  store i32 4, ptr %12, align 4
  br label %115

71:                                               ; preds = %55
  %72 = load ptr, ptr %6, align 8
  %73 = icmp ne ptr %72, null
  br i1 %73, label %75, label %74

74:                                               ; preds = %71
  store i8 1, ptr %7, align 1
  store i32 2, ptr %12, align 4
  br label %115

75:                                               ; preds = %71
  %76 = load ptr, ptr %11, align 8
  %77 = getelementptr inbounds nuw %struct.FormData_pg_amop, ptr %76, i32 0, i32 2
  %78 = load i32, ptr %77, align 4
  %79 = load ptr, ptr %11, align 8
  %80 = getelementptr inbounds nuw %struct.FormData_pg_amop, ptr %79, i32 0, i32 3
  %81 = load i32, ptr %80, align 4
  %82 = icmp eq i32 %78, %81
  br i1 %82, label %83, label %87

83:                                               ; preds = %75
  %84 = load ptr, ptr %5, align 8
  %85 = load i32, ptr %84, align 4
  %86 = load ptr, ptr %6, align 8
  store i32 %85, ptr %86, align 4
  store i8 1, ptr %7, align 1
  store i32 2, ptr %12, align 4
  br label %115

87:                                               ; preds = %75
  br label %88

88:                                               ; preds = %87, %52
  %89 = load ptr, ptr %6, align 8
  %90 = icmp ne ptr %89, null
  br i1 %90, label %91, label %113

91:                                               ; preds = %88
  %92 = load ptr, ptr %11, align 8
  %93 = getelementptr inbounds nuw %struct.FormData_pg_amop, ptr %92, i32 0, i32 1
  %94 = load i32, ptr %93, align 4
  %95 = load ptr, ptr %11, align 8
  %96 = getelementptr inbounds nuw %struct.FormData_pg_amop, ptr %95, i32 0, i32 3
  %97 = load i32, ptr %96, align 4
  %98 = load ptr, ptr %11, align 8
  %99 = getelementptr inbounds nuw %struct.FormData_pg_amop, ptr %98, i32 0, i32 3
  %100 = load i32, ptr %99, align 4
  %101 = call i32 @get_opfamily_proc(i32 noundef %94, i32 noundef %97, i32 noundef %100, i16 noundef signext 1)
  %102 = load ptr, ptr %6, align 8
  store i32 %101, ptr %102, align 4
  %103 = load ptr, ptr %6, align 8
  %104 = load i32, ptr %103, align 4
  %105 = icmp ne i32 %104, 0
  br i1 %105, label %112, label %106

106:                                              ; preds = %91
  %107 = load ptr, ptr %5, align 8
  %108 = icmp ne ptr %107, null
  br i1 %108, label %109, label %111

109:                                              ; preds = %106
  %110 = load ptr, ptr %5, align 8
  store i32 0, ptr %110, align 4
  br label %111

111:                                              ; preds = %109, %106
  store i32 4, ptr %12, align 4
  br label %115

112:                                              ; preds = %91
  store i8 1, ptr %7, align 1
  store i32 2, ptr %12, align 4
  br label %115

113:                                              ; preds = %88
  br label %114

114:                                              ; preds = %113, %46, %32
  store i32 0, ptr %12, align 4
  br label %115

115:                                              ; preds = %114, %112, %111, %83, %74, %70
  call void @llvm.lifetime.end.p0(i64 8, ptr %11) #7
  call void @llvm.lifetime.end.p0(i64 8, ptr %10) #7
  %116 = load i32, ptr %12, align 4
  switch i32 %116, label %125 [
    i32 0, label %117
    i32 4, label %118
    i32 2, label %121
  ]

117:                                              ; preds = %115
  br label %118

118:                                              ; preds = %117, %115
  %119 = load i32, ptr %9, align 4
  %120 = add i32 %119, 1
  store i32 %120, ptr %9, align 4
  br label %26, !llvm.loop !11

121:                                              ; preds = %115, %26
  %122 = load ptr, ptr %8, align 8
  call void @ReleaseCatCacheList(ptr noundef %122)
  %123 = load i8, ptr %7, align 1, !range !4, !noundef !5
  %124 = trunc i8 %123 to i1
  store i32 1, ptr %12, align 4
  call void @llvm.lifetime.end.p0(i64 4, ptr %9) #7
  call void @llvm.lifetime.end.p0(i64 8, ptr %8) #7
  call void @llvm.lifetime.end.p0(i64 1, ptr %7) #7
  ret i1 %124

125:                                              ; preds = %115
  unreachable
}