; Function Attrs: nounwind uwtable
define dso_local noundef zeroext i1 @get_op_hash_functions(i32 noundef %0, ptr noundef writeonly captures(address_is_null) %1, ptr noundef writeonly captures(address_is_null) %2) local_unnamed_addr #0 {
  %.not = icmp eq ptr %1, null
  br i1 %.not, label %5, label %4

4:                                                ; preds = %3
  store i32 0, ptr %1, align 4
  br label %5

5:                                                ; preds = %4, %3
  %.not43 = icmp eq ptr %2, null
  br i1 %.not43, label %7, label %6

6:                                                ; preds = %5
  store i32 0, ptr %2, align 4
  br label %7

7:                                                ; preds = %6, %5
  %8 = zext i32 %0 to i64
  %9 = tail call ptr @SearchSysCacheList(i32 noundef 3, i32 noundef 1, i64 noundef %8, i64 noundef 0, i64 noundef 0) #8
  %10 = getelementptr inbounds nuw i8, ptr %9, i64 64
  %11 = load i32, ptr %10, align 8
  %12 = icmp sgt i32 %11, 0
  br i1 %12, label %.lr.ph, label %.loopexit

.lr.ph:                                           ; preds = %7
  %13 = getelementptr inbounds nuw i8, ptr %9, i64 80
  br i1 %.not, label %.lr.ph.split.us, label %.lr.ph.split

.lr.ph.split.us:                                  ; preds = %.lr.ph
  br i1 %.not43, label %.loopexit, label %.lr.ph.split.us.split

.lr.ph.split.us.split:                            ; preds = %.lr.ph.split.us, %.thread58.us
  %14 = phi i32 [ %43, %.thread58.us ], [ %11, %.lr.ph.split.us ]
  %indvars.iv94 = phi i64 [ %indvars.iv.next95, %.thread58.us ], [ 0, %.lr.ph.split.us ]
  %15 = getelementptr inbounds nuw [0 x ptr], ptr %13, i64 0, i64 %indvars.iv94
  %16 = load ptr, ptr %15, align 8
  %17 = getelementptr i8, ptr %16, i64 80
  %.val.us = load ptr, ptr %17, align 8
  %18 = getelementptr inbounds nuw i8, ptr %.val.us, i64 22
  %19 = load i8, ptr %18, align 2
  %20 = zext i8 %19 to i64
  %21 = getelementptr inbounds nuw i8, ptr %.val.us, i64 %20
  %22 = getelementptr inbounds nuw i8, ptr %21, i64 24
  %23 = load i32, ptr %22, align 4
  %24 = icmp eq i32 %23, 405
  br i1 %24, label %25, label %.thread58.us

25:                                               ; preds = %.lr.ph.split.us.split
  %26 = getelementptr inbounds nuw i8, ptr %21, i64 16
  %27 = load i16, ptr %26, align 4
  %28 = icmp eq i16 %27, 1
  br i1 %28, label %.thread.us, label %.thread58.us

.thread.us:                                       ; preds = %25
  %29 = getelementptr inbounds nuw i8, ptr %21, i64 4
  %30 = load i32, ptr %29, align 4
  %31 = getelementptr inbounds nuw i8, ptr %21, i64 12
  %32 = load i32, ptr %31, align 4
  %33 = zext i32 %30 to i64
  %34 = zext i32 %32 to i64
  %35 = tail call ptr @SearchSysCache4(i32 noundef 5, i64 noundef %33, i64 noundef %34, i64 noundef %34, i64 noundef 1) #8
  %.not.i49.us = icmp eq ptr %35, null
  br i1 %.not.i49.us, label %get_opfamily_proc.exit52.us.thread, label %get_opfamily_proc.exit52.us

get_opfamily_proc.exit52.us.thread:               ; preds = %.thread.us
  store i32 0, ptr %2, align 4
  br label %get_opfamily_proc.exit52.us..thread58.us_crit_edge

get_opfamily_proc.exit52.us:                      ; preds = %.thread.us
  %36 = getelementptr i8, ptr %35, i64 16
  %.val.i50.us = load ptr, ptr %36, align 8
  %37 = getelementptr inbounds nuw i8, ptr %.val.i50.us, i64 22
  %38 = load i8, ptr %37, align 2
  %39 = zext i8 %38 to i64
  %40 = getelementptr inbounds nuw i8, ptr %.val.i50.us, i64 %39
  %41 = getelementptr inbounds nuw i8, ptr %40, i64 20
  %42 = load i32, ptr %41, align 4
  tail call void @ReleaseSysCache(ptr noundef nonnull %35) #8
  store i32 %42, ptr %2, align 4
  %.not45.us.not = icmp eq i32 %42, 0
  br i1 %.not45.us.not, label %get_opfamily_proc.exit52.us..thread58.us_crit_edge, label %.loopexit

get_opfamily_proc.exit52.us..thread58.us_crit_edge: ; preds = %get_opfamily_proc.exit52.us.thread, %get_opfamily_proc.exit52.us
  %.pre = load i32, ptr %10, align 8
  br label %.thread58.us

.thread58.us:                                     ; preds = %get_opfamily_proc.exit52.us..thread58.us_crit_edge, %25, %.lr.ph.split.us.split
  %43 = phi i32 [ %.pre, %get_opfamily_proc.exit52.us..thread58.us_crit_edge ], [ %14, %25 ], [ %14, %.lr.ph.split.us.split ]
  %indvars.iv.next95 = add nuw nsw i64 %indvars.iv94, 1
  %44 = sext i32 %43 to i64
  %45 = icmp slt i64 %indvars.iv.next95, %44
  br i1 %45, label %.lr.ph.split.us.split, label %.loopexit, !llvm.loop !9

.lr.ph.split:                                     ; preds = %.lr.ph
  br i1 %.not43, label %.lr.ph.split.split.us, label %.lr.ph.split.split

.lr.ph.split.split.us:                            ; preds = %.lr.ph.split, %.thread58.us80
  %indvars.iv92 = phi i64 [ %indvars.iv.next93, %.thread58.us80 ], [ 0, %.lr.ph.split ]
  %46 = getelementptr inbounds nuw [0 x ptr], ptr %13, i64 0, i64 %indvars.iv92
  %47 = load ptr, ptr %46, align 8
  %48 = getelementptr i8, ptr %47, i64 80
  %.val.us76 = load ptr, ptr %48, align 8
  %49 = getelementptr inbounds nuw i8, ptr %.val.us76, i64 22
  %50 = load i8, ptr %49, align 2
  %51 = zext i8 %50 to i64
  %52 = getelementptr inbounds nuw i8, ptr %.val.us76, i64 %51
  %53 = getelementptr inbounds nuw i8, ptr %52, i64 24
  %54 = load i32, ptr %53, align 4
  %55 = icmp eq i32 %54, 405
  br i1 %55, label %56, label %.thread58.us80

56:                                               ; preds = %.lr.ph.split.split.us
  %57 = getelementptr inbounds nuw i8, ptr %52, i64 16
  %58 = load i16, ptr %57, align 4
  %59 = icmp eq i16 %58, 1
  br i1 %59, label %60, label %.thread58.us80

60:                                               ; preds = %56
  %61 = getelementptr inbounds nuw i8, ptr %52, i64 4
  %62 = load i32, ptr %61, align 4
  %63 = getelementptr inbounds nuw i8, ptr %52, i64 8
  %64 = load i32, ptr %63, align 4
  %65 = zext i32 %62 to i64
  %66 = zext i32 %64 to i64
  %67 = tail call ptr @SearchSysCache4(i32 noundef 5, i64 noundef %65, i64 noundef %66, i64 noundef %66, i64 noundef 1) #8
  %.not.i.us = icmp eq ptr %67, null
  br i1 %.not.i.us, label %get_opfamily_proc.exit.thread.us, label %get_opfamily_proc.exit.us

get_opfamily_proc.exit.us:                        ; preds = %60
  %68 = getelementptr i8, ptr %67, i64 16
  %.val.i.us = load ptr, ptr %68, align 8
  %69 = getelementptr inbounds nuw i8, ptr %.val.i.us, i64 22
  %70 = load i8, ptr %69, align 2
  %71 = zext i8 %70 to i64
  %72 = getelementptr inbounds nuw i8, ptr %.val.i.us, i64 %71
  %73 = getelementptr inbounds nuw i8, ptr %72, i64 20
  %74 = load i32, ptr %73, align 4
  tail call void @ReleaseSysCache(ptr noundef nonnull %67) #8
  store i32 %74, ptr %1, align 4
  %.not44.us.not = icmp eq i32 %74, 0
  br i1 %.not44.us.not, label %.thread58.us80, label %.loopexit

get_opfamily_proc.exit.thread.us:                 ; preds = %60
  store i32 0, ptr %1, align 4
  br label %.thread58.us80

.thread58.us80:                                   ; preds = %get_opfamily_proc.exit.us, %get_opfamily_proc.exit.thread.us, %56, %.lr.ph.split.split.us
  %indvars.iv.next93 = add nuw nsw i64 %indvars.iv92, 1
  %75 = load i32, ptr %10, align 8
  %76 = sext i32 %75 to i64
  %77 = icmp slt i64 %indvars.iv.next93, %76
  br i1 %77, label %.lr.ph.split.split.us, label %.loopexit, !llvm.loop !9

.lr.ph.split.split:                               ; preds = %.lr.ph.split, %.thread58
  %indvars.iv = phi i64 [ %indvars.iv.next, %.thread58 ], [ 0, %.lr.ph.split ]
  %78 = getelementptr inbounds nuw [0 x ptr], ptr %13, i64 0, i64 %indvars.iv
  %79 = load ptr, ptr %78, align 8
  %80 = getelementptr i8, ptr %79, i64 80
  %.val = load ptr, ptr %80, align 8
  %81 = getelementptr inbounds nuw i8, ptr %.val, i64 22
  %82 = load i8, ptr %81, align 2
  %83 = zext i8 %82 to i64
  %84 = getelementptr inbounds nuw i8, ptr %.val, i64 %83
  %85 = getelementptr inbounds nuw i8, ptr %84, i64 24
  %86 = load i32, ptr %85, align 4
  %87 = icmp eq i32 %86, 405
  br i1 %87, label %88, label %.thread58

88:                                               ; preds = %.lr.ph.split.split
  %89 = getelementptr inbounds nuw i8, ptr %84, i64 16
  %90 = load i16, ptr %89, align 4
  %91 = icmp eq i16 %90, 1
  br i1 %91, label %92, label %.thread58

92:                                               ; preds = %88
  %93 = getelementptr inbounds nuw i8, ptr %84, i64 4
  %94 = load i32, ptr %93, align 4
  %95 = getelementptr inbounds nuw i8, ptr %84, i64 8
  %96 = load i32, ptr %95, align 4
  %97 = zext i32 %94 to i64
  %98 = zext i32 %96 to i64
  %99 = tail call ptr @SearchSysCache4(i32 noundef 5, i64 noundef %97, i64 noundef %98, i64 noundef %98, i64 noundef 1) #8
  %.not.i = icmp eq ptr %99, null
  br i1 %.not.i, label %.thread58.sink.split, label %get_opfamily_proc.exit

get_opfamily_proc.exit:                           ; preds = %92
  %100 = getelementptr i8, ptr %99, i64 16
  %.val.i = load ptr, ptr %100, align 8
  %101 = getelementptr inbounds nuw i8, ptr %.val.i, i64 22
  %102 = load i8, ptr %101, align 2
  %103 = zext i8 %102 to i64
  %104 = getelementptr inbounds nuw i8, ptr %.val.i, i64 %103
  %105 = getelementptr inbounds nuw i8, ptr %104, i64 20
  %106 = load i32, ptr %105, align 4
  tail call void @ReleaseSysCache(ptr noundef nonnull %99) #8
  store i32 %106, ptr %1, align 4
  %.not44.not = icmp eq i32 %106, 0
  br i1 %.not44.not, label %.thread58, label %107

107:                                              ; preds = %get_opfamily_proc.exit
  %108 = load i32, ptr %95, align 4
  %109 = getelementptr inbounds nuw i8, ptr %84, i64 12
  %110 = load i32, ptr %109, align 4
  %111 = icmp eq i32 %108, %110
  br i1 %111, label %.thread64, label %.thread

.thread64:                                        ; preds = %107
  store i32 %106, ptr %2, align 4
  br label %.loopexit

.thread:                                          ; preds = %107
  %112 = load i32, ptr %93, align 4
  %113 = zext i32 %112 to i64
  %114 = zext i32 %110 to i64
  %115 = tail call ptr @SearchSysCache4(i32 noundef 5, i64 noundef %113, i64 noundef %114, i64 noundef %114, i64 noundef 1) #8
  %.not.i49 = icmp eq ptr %115, null
  br i1 %.not.i49, label %get_opfamily_proc.exit52.thread, label %get_opfamily_proc.exit52

get_opfamily_proc.exit52.thread:                  ; preds = %.thread
  store i32 0, ptr %2, align 4
  br label %.thread58.sink.split

get_opfamily_proc.exit52:                         ; preds = %.thread
  %116 = getelementptr i8, ptr %115, i64 16
  %.val.i50 = load ptr, ptr %116, align 8
  %117 = getelementptr inbounds nuw i8, ptr %.val.i50, i64 22
  %118 = load i8, ptr %117, align 2
  %119 = zext i8 %118 to i64
  %120 = getelementptr inbounds nuw i8, ptr %.val.i50, i64 %119
  %121 = getelementptr inbounds nuw i8, ptr %120, i64 20
  %122 = load i32, ptr %121, align 4
  tail call void @ReleaseSysCache(ptr noundef nonnull %115) #8
  store i32 %122, ptr %2, align 4
  %.not45.not = icmp eq i32 %122, 0
  br i1 %.not45.not, label %.thread58.sink.split, label %.loopexit

.thread58.sink.split:                             ; preds = %get_opfamily_proc.exit52, %get_opfamily_proc.exit52.thread, %92
  store i32 0, ptr %1, align 4
  br label %.thread58

.thread58:                                        ; preds = %.thread58.sink.split, %get_opfamily_proc.exit, %.lr.ph.split.split, %88
  %indvars.iv.next = add nuw nsw i64 %indvars.iv, 1
  %123 = load i32, ptr %10, align 8
  %124 = sext i32 %123 to i64
  %125 = icmp slt i64 %indvars.iv.next, %124
  br i1 %125, label %.lr.ph.split.split, label %.loopexit, !llvm.loop !9

.loopexit:                                        ; preds = %get_opfamily_proc.exit52, %.thread58, %.thread58.us80, %get_opfamily_proc.exit.us, %.thread58.us, %get_opfamily_proc.exit52.us, %.lr.ph.split.us, %7, %.thread64
  %.1 = phi i1 [ true, %.thread64 ], [ false, %7 ], [ false, %.lr.ph.split.us ], [ false, %.thread58.us ], [ true, %get_opfamily_proc.exit52.us ], [ false, %.thread58.us80 ], [ true, %get_opfamily_proc.exit.us ], [ true, %get_opfamily_proc.exit52 ], [ false, %.thread58 ]
  tail call void @ReleaseCatCacheList(ptr noundef nonnull %9) #8
  ret i1 %.1
}